target datalayout = "e-m:e-p270:32:32-p271:32:32-p272:64:64-i64:64-i128:128-f80:128-n8:16:32:64-S128"
target triple = "x86_64-pc-linux-gnu"

; Function Attrs: mustprogress nounwind uwtable
define noundef ptr @_Z9WideToRawPKwmPhm(ptr noundef %0, i64 noundef %1, ptr noundef %2, i64 noundef %3) #1 {
  %5 = alloca ptr, align 8
  %6 = alloca i64, align 8
  %7 = alloca ptr, align 8
  %8 = alloca i64, align 8
  %9 = alloca i64, align 8
  store ptr %0, ptr %5, align 8
  store i64 %1, ptr %6, align 8
  store ptr %2, ptr %7, align 8
  store i64 %3, ptr %8, align 8
  store i64 0, ptr %9, align 8
  br label %10

10:                                               ; preds = %44, %4
  %11 = load i64, ptr %9, align 8
  %12 = load i64, ptr %6, align 8
  %13 = icmp ult i64 %11, %12
  br i1 %13, label %14, label %20

14:                                               ; preds = %10
  %15 = load i64, ptr %9, align 8
  %16 = mul i64 %15, 2
  %17 = add i64 %16, 1
  %18 = load i64, ptr %8, align 8
  %19 = icmp ult i64 %17, %18
  br label %20

20:                                               ; preds = %14, %10
  %21 = phi i1 [ false, %10 ], [ %19, %14 ]
  br i1 %21, label %22, label %49

22:                                               ; preds = %20
  %23 = load ptr, ptr %5, align 8
  %24 = load i32, ptr %23, align 4
  %25 = trunc i32 %24 to i8
  %26 = load ptr, ptr %7, align 8
  %27 = load i64, ptr %9, align 8
  %28 = mul i64 %27, 2
  %29 = getelementptr inbounds i8, ptr %26, i64 %28
  store i8 %25, ptr %29, align 1
  %30 = load ptr, ptr %5, align 8
  %31 = load i32, ptr %30, align 4
  %32 = ashr i32 %31, 8
  %33 = trunc i32 %32 to i8
  %34 = load ptr, ptr %7, align 8
  %35 = load i64, ptr %9, align 8
  %36 = mul i64 %35, 2
  %37 = add i64 %36, 1
  %38 = getelementptr inbounds i8, ptr %34, i64 %37
  store i8 %33, ptr %38, align 1
  %39 = load ptr, ptr %5, align 8
  %40 = load i32, ptr %39, align 4
  %41 = icmp eq i32 %40, 0
  br i1 %41, label %42, label %43

42:                                               ; preds = %22
  br label %49

43:                                               ; preds = %22
  br label %44

44:                                               ; preds = %43
  %45 = load i64, ptr %9, align 8
  %46 = add i64 %45, 1
  store i64 %46, ptr %9, align 8
  %47 = load ptr, ptr %5, align 8
  %48 = getelementptr inbounds i32, ptr %47, i32 1
  store ptr %48, ptr %5, align 8
  br label %10, !llvm.loop !7

49:                                               ; preds = %42, %20
  %50 = load ptr, ptr %7, align 8
  ret ptr %50
}