; Function Attrs: mustprogress nofree norecurse nosync nounwind memory(argmem: readwrite) uwtable
define noundef ptr @_Z9WideToRawPKwmPhm(ptr noundef readonly captures(none) %0, i64 noundef %1, ptr noundef returned writeonly %2, i64 noundef %3) local_unnamed_addr #4 {
  %.not = icmp eq i64 %1, 0
  br i1 %.not, label %.critedge, label %.lr.ph

.lr.ph:                                           ; preds = %4, %8
  %.016 = phi i64 [ %18, %8 ], [ 0, %4 ]
  %.01315 = phi ptr [ %19, %8 ], [ %0, %4 ]
  %5 = shl i64 %.016, 1
  %6 = or disjoint i64 %5, 1
  %7 = icmp ult i64 %6, %3
  br i1 %7, label %8, label %.critedge

8:                                                ; preds = %.lr.ph
  %9 = load i32, ptr %.01315, align 4
  %10 = trunc i32 %9 to i8
  %11 = getelementptr inbounds i8, ptr %2, i64 %5
  store i8 %10, ptr %11, align 1
  %12 = load i32, ptr %.01315, align 4
  %13 = lshr i32 %12, 8
  %14 = trunc i32 %13 to i8
  %15 = getelementptr inbounds i8, ptr %2, i64 %6
  store i8 %14, ptr %15, align 1
  %16 = load i32, ptr %.01315, align 4
  %17 = icmp ne i32 %16, 0
  %18 = add nuw i64 %.016, 1
  %19 = getelementptr inbounds nuw i8, ptr %.01315, i64 4
  %20 = icmp ult i64 %18, %1
  %or.cond = select i1 %17, i1 %20, i1 false
  br i1 %or.cond, label %.lr.ph, label %.critedge, !llvm.loop !7

.critedge:                                        ; preds = %.lr.ph, %8, %4
  ret ptr %2
}